(dp0
S'loss'
p1
(lp2
cnumpy.core.multiarray
scalar
p3
(cnumpy
dtype
p4
(S'f8'
p5
I0
I1
tp6
Rp7
(I3
S'<'
p8
NNNI-1
I-1
I0
tp9
bS'\xbe\x9f\x1a\xcf\x14^k@'
p10
tp11
Rp12
ag3
(g7
S'\x96C\x8b4\x1f\xfbf@'
p13
tp14
Rp15
asS'vae_kl'
p16
(lp17
g3
(g7
S"'1\x08\r\x9a\xda\x03@"
p18
tp19
Rp20
ag3
(g7
S'\x87\x16\xd9\xda\x80\xf0\x14@'
p21
tp22
Rp23
asS'vae_re'
p24
(lp25
g3
(g7
S')\\\x8fj\xaa\x0ek@'
p26
tp27
Rp28
ag3
(g7
S'\xf4\xfd\xd40\x9bSf@'
p29
tp30
Rp31
asS'val_vae_re'
p32
(lp33
g3
(g7
S'\\\x8f\xc2\xfd\xdd\xf5g@'
p34
tp35
Rp36
ag3
(g7
S'\\\x8f\xc2\xc5r~d@'
p37
tp38
Rp39
asS'val_vae_kl'
p40
(lp41
g3
(g7
S'\x1f\x85\xeba\xf8\xc1\t@'
p42
tp43
Rp44
ag3
(g7
S'H\xe1z@%\xc9 @'
p45
tp46
Rp47
asS'val_loss'
p48
(lp49
g3
(g7
S'\xf6(\\\xe7\xe5\\h@'
p50
tp51
Rp52
ag3
(g7
S'\xf6(\\\x17\x05\x8be@'
p53
tp54
Rp55
as.