(dp0
S'loss'
p1
(lp2
cnumpy.core.multiarray
scalar
p3
(cnumpy
dtype
p4
(S'f8'
p5
I0
I1
tp6
Rp7
(I3
S'<'
p8
NNNI-1
I-1
I0
tp9
bS'=\n\xd7K\x83Bk@'
p10
tp11
Rp12
ag3
(g7
S'`\xe5\xd0ru\x03g@'
p13
tp14
Rp15
asS'vae_kl'
p16
(lp17
g3
(g7
S'w\xbe\x1fj\x86i\x04@'
p18
tp19
Rp20
ag3
(g7
S'o\x12\x83\xc8\x01\xa8\x13@'
p21
tp22
Rp23
asS'vae_re'
p24
(lp25
g3
(g7
S'H\xe1z<\xdd\xf0j@'
p26
tp27
Rp28
ag3
(g7
S'\x8bl\xe7k5ff@'
p29
tp30
Rp31
asS'val_vae_re'
p32
(lp33
g3
(g7
S'\xf6(\\/\xdd\xd7g@'
p34
tp35
Rp36
ag3
(g7
S'\n\xd7\xa3\xb0\xedtd@'
p37
tp38
Rp39
asS'val_vae_kl'
p40
(lp41
g3
(g7
S'\xa4p=j\x8a^\t@'
p42
tp43
Rp44
ag3
(g7
S'\xcd\xcc\xcc|\xd9\xc0 @'
p45
tp46
Rp47
asS'val_loss'
p48
(lp49
g3
(g7
S'\x14\xaeGaW=h@'
p50
tp51
Rp52
ag3
(g7
S'\xb8\x1e\x85C\xfb\x80e@'
p53
tp54
Rp55
as.