(dp0
S'loss'
p1
(lp2
cnumpy.core.multiarray
scalar
p3
(cnumpy
dtype
p4
(S'f8'
p5
I0
I1
tp6
Rp7
(I3
S'<'
p8
NNNI-1
I-1
I0
tp9
bS'\xdb\xf9~\x12\xe2ek@'
p10
tp11
Rp12
ag3
(g7
S'\xaa\xf1\xd2\xcd\xcb<g@'
p13
tp14
Rp15
asS'vae_kl'
p16
(lp17
g3
(g7
S'\xaa\xf1\xd2\xd6U\xc4\x03@'
p18
tp19
Rp20
ag3
(g7
S'o\x12\x83<o\x8b\x0f@'
p21
tp22
Rp23
asS'vae_re'
p24
(lp25
g3
(g7
S'\x1dZd\xc3\xd0\x16k@'
p26
tp27
Rp28
ag3
(g7
S'q=\n\x17\x9e\xbef@'
p29
tp30
Rp31
asS'val_vae_re'
p32
(lp33
g3
(g7
S'\x85\xebQ\x00g\xc2g@'
p34
tp35
Rp36
ag3
(g7
S')\\\x8f\xbaD3e@'
p37
tp38
Rp39
asS'val_vae_kl'
p40
(lp41
g3
(g7
S'H\xe1z\xa0{A\x04@'
p42
tp43
Rp44
ag3
(g7
S'R\xb8\x1e\xe5\xf4\x0b\x1b@'
p45
tp46
Rp47
asS'val_loss'
p48
(lp49
g3
(g7
S'333\xf3l\x13h@'
p50
tp51
Rp52
ag3
(g7
S'\xc3\xf5(d\xa4\x0bf@'
p53
tp54
Rp55
as.